target datalayout = "e-m:e-p270:32:32-p271:32:32-p272:64:64-i64:64-i128:128-f80:128-n8:16:32:64-S128"
target triple = "x86_64-pc-linux-gnu"

%struct.linger = type { i32, i32 }
%struct.RBasic = type { i64, i64 }
%struct.RString = type { %struct.RBasic, i64, %union.anon.12 }
%union.anon.12 = type { %struct.anon.13 }
%struct.anon.13 = type { ptr, %union.anon.14 }
%union.anon.14 = type { i64 }
%struct.anon.15 = type { [1 x i8] }

@.str.3 = private unnamed_addr constant [6 x i8] c"level\00", align 1
@.str.4 = private unnamed_addr constant [8 x i8] c"optname\00", align 1
@.str.5 = private unnamed_addr constant [5 x i8] c"data\00", align 1
@sockopt_level.rbimpl_id = internal global i64 0, align 8
@sockopt_optname.rbimpl_id = internal global i64 0, align 8
@sockopt_data.rbimpl_id = internal global i64 0, align 8
@rb_eTypeError = external global i64, align 8
@.str.102 = private unnamed_addr constant [30 x i8] c"linger socket option expected\00", align 1
@.str.103 = private unnamed_addr constant [59 x i8] c"size differ.  expected as sizeof(struct linger)=%d but %ld\00", align 1

; Function Attrs: inlinehint nounwind sspstrong willreturn memory(read) uwtable
define internal i64 @RB_FL_TEST_RAW(i64 noundef %0, i64 noundef %1) #5 {
  %3 = alloca i64, align 8
  %4 = alloca i64, align 8
  store i64 %0, ptr %3, align 8, !tbaa !10
  store i64 %1, ptr %4, align 8, !tbaa !10
  %5 = load i64, ptr %3, align 8, !tbaa !10
  %6 = inttoptr i64 %5 to ptr
  %7 = getelementptr inbounds nuw %struct.RBasic, ptr %6, i32 0, i32 0
  %8 = load i64, ptr %7, align 8, !tbaa !65
  %9 = load i64, ptr %4, align 8, !tbaa !10
  %10 = and i64 %8, %9
  ret i64 %10
}

; Function Attrs: inlinehint nounwind sspstrong willreturn memory(read) uwtable
define internal zeroext i1 @RB_FL_ANY_RAW(i64 noundef %0, i64 noundef %1) #5 {
  %3 = alloca i64, align 8
  %4 = alloca i64, align 8
  store i64 %0, ptr %3, align 8, !tbaa !10
  store i64 %1, ptr %4, align 8, !tbaa !10
  %5 = load i64, ptr %3, align 8, !tbaa !10
  %6 = load i64, ptr %4, align 8, !tbaa !10
  %7 = call i64 @RB_FL_TEST_RAW(i64 noundef %5, i64 noundef %6) #20
  %8 = icmp ne i64 %7, 0
  ret i1 %8
}

; Function Attrs: inlinehint nounwind sspstrong willreturn memory(none) uwtable
define internal zeroext i1 @RB_FIXNUM_P(i64 noundef %0) #7 {
  %2 = alloca i64, align 8
  store i64 %0, ptr %2, align 8, !tbaa !10
  %3 = load i64, ptr %2, align 8, !tbaa !10
  %4 = and i64 %3, 1
  %5 = icmp ne i64 %4, 0
  ret i1 %5
}

; Function Attrs: inlinehint nounwind sspstrong willreturn memory(read) uwtable
define internal i64 @rb_intern_const(ptr noundef nonnull %0) #5 {
  %2 = alloca ptr, align 8
  %3 = alloca i64, align 8
  store ptr %0, ptr %2, align 8, !tbaa !19
  call void @llvm.lifetime.start.p0(i64 8, ptr %3) #17
  %4 = load ptr, ptr %2, align 8, !tbaa !19
  %5 = call i64 @strlen(ptr noundef %4) #20
  store i64 %5, ptr %3, align 8, !tbaa !10
  %6 = load ptr, ptr %2, align 8, !tbaa !19
  %7 = load i64, ptr %3, align 8, !tbaa !10
  %8 = call i64 @rb_intern2(ptr noundef %6, i64 noundef %7)
  call void @llvm.lifetime.end.p0(i64 8, ptr %3) #17
  ret i64 %8
}

; Function Attrs: inlinehint nounwind sspstrong willreturn memory(none) uwtable
define internal i64 @RB_INT2FIX(i64 noundef %0) #7 {
  %2 = alloca i64, align 8
  %3 = alloca i64, align 8
  %4 = alloca i64, align 8
  %5 = alloca i64, align 8
  %6 = alloca i64, align 8
  %7 = alloca i64, align 8
  store i64 %0, ptr %2, align 8, !tbaa !10
  call void @llvm.lifetime.start.p0(i64 8, ptr %3) #17
  %8 = load i64, ptr %2, align 8, !tbaa !10
  store i64 %8, ptr %3, align 8, !tbaa !10
  call void @llvm.lifetime.start.p0(i64 8, ptr %4) #17
  %9 = load i64, ptr %3, align 8, !tbaa !10
  %10 = shl i64 %9, 1
  %11 = add i64 %10, 1
  store i64 %11, ptr %4, align 8, !tbaa !10
  call void @llvm.lifetime.start.p0(i64 8, ptr %5) #17
  %12 = load i64, ptr %4, align 8, !tbaa !10
  store i64 %12, ptr %5, align 8, !tbaa !10
  call void @llvm.lifetime.start.p0(i64 8, ptr %6) #17
  %13 = load i64, ptr %5, align 8, !tbaa !10
  store i64 %13, ptr %6, align 8, !tbaa !10
  call void @llvm.lifetime.start.p0(i64 8, ptr %7) #17
  %14 = load i64, ptr %6, align 8, !tbaa !10
  store i64 %14, ptr %7, align 8, !tbaa !10
  %15 = load i64, ptr %7, align 8, !tbaa !10
  call void @llvm.lifetime.end.p0(i64 8, ptr %7) #17
  call void @llvm.lifetime.end.p0(i64 8, ptr %6) #17
  call void @llvm.lifetime.end.p0(i64 8, ptr %5) #17
  call void @llvm.lifetime.end.p0(i64 8, ptr %4) #17
  call void @llvm.lifetime.end.p0(i64 8, ptr %3) #17
  ret i64 %15
}

; Function Attrs: alwaysinline nounwind
define internal ptr @memcpy.inline(ptr noalias nonnull %0, ptr noalias nonnull %1, i64 %2) #8 {
  %4 = alloca ptr, align 8
  %5 = alloca ptr, align 8
  %6 = alloca i64, align 8
  store ptr %0, ptr %4, align 8, !tbaa !64
  store ptr %1, ptr %5, align 8, !tbaa !64
  store i64 %2, ptr %6, align 8, !tbaa !10
  %7 = load ptr, ptr %4, align 8, !tbaa !64
  %8 = load ptr, ptr %5, align 8, !tbaa !64
  %9 = load i64, ptr %6, align 8, !tbaa !10
  %10 = load ptr, ptr %4, align 8, !tbaa !64
  %11 = call i64 @llvm.objectsize.i64.p0(ptr %10, i1 false, i1 true, i1 false)
  %12 = call ptr @__memcpy_chk(ptr noundef %7, ptr noundef %8, i64 noundef %9, i64 noundef %11) #17
  ret ptr %12
}

; Function Attrs: inlinehint nounwind sspstrong willreturn memory(read, argmem: readwrite) uwtable
define internal void @rbimpl_rstring_getmem(ptr dead_on_unwind noalias writable sret(%struct.RString) align 8 %0, i64 noundef %1) #11 {
  %3 = alloca i64, align 8
  store i64 %1, ptr %3, align 8, !tbaa !10
  %4 = load i64, ptr %3, align 8, !tbaa !10
  %5 = call zeroext i1 @RB_FL_ANY_RAW(i64 noundef %4, i64 noundef 8192) #20
  br i1 %5, label %6, label %9

6:                                                ; preds = %2
  %7 = load i64, ptr %3, align 8, !tbaa !10
  %8 = inttoptr i64 %7 to ptr
  call void @llvm.memcpy.p0.p0.i64(ptr align 8 %0, ptr align 8 %8, i64 40, i1 false), !tbaa.struct !69
  br label %20

9:                                                ; preds = %2
  %10 = load i64, ptr %3, align 8, !tbaa !10
  %11 = call i64 @RSTRING_LEN(i64 noundef %10) #20
  %12 = getelementptr inbounds nuw %struct.RString, ptr %0, i32 0, i32 1
  store i64 %11, ptr %12, align 8, !tbaa !67
  %13 = load i64, ptr %3, align 8, !tbaa !10
  %14 = inttoptr i64 %13 to ptr
  %15 = getelementptr inbounds nuw %struct.RString, ptr %14, i32 0, i32 2
  %16 = getelementptr inbounds nuw %struct.anon.15, ptr %15, i32 0, i32 0
  %17 = getelementptr inbounds [1 x i8], ptr %16, i64 0, i64 0
  %18 = getelementptr inbounds nuw %struct.RString, ptr %0, i32 0, i32 2
  %19 = getelementptr inbounds nuw %struct.anon.13, ptr %18, i32 0, i32 0
  store ptr %17, ptr %19, align 8, !tbaa !12
  br label %20

20:                                               ; preds = %9, %6
  ret void
}

; Function Attrs: inlinehint nounwind sspstrong uwtable
define internal i32 @rb_num2int_inline(i64 noundef %0) #3 {
  %2 = alloca i64, align 8
  %3 = alloca i64, align 8
  store i64 %0, ptr %2, align 8, !tbaa !10
  call void @llvm.lifetime.start.p0(i64 8, ptr %3) #17
  %4 = load i64, ptr %2, align 8, !tbaa !10
  %5 = call zeroext i1 @RB_FIXNUM_P(i64 noundef %4) #19
  br i1 %5, label %6, label %9

6:                                                ; preds = %1
  %7 = load i64, ptr %2, align 8, !tbaa !10
  %8 = call i64 @rb_fix2int(i64 noundef %7)
  store i64 %8, ptr %3, align 8, !tbaa !10
  br label %12

9:                                                ; preds = %1
  %10 = load i64, ptr %2, align 8, !tbaa !10
  %11 = call i64 @rb_num2int(i64 noundef %10)
  store i64 %11, ptr %3, align 8, !tbaa !10
  br label %12

12:                                               ; preds = %9, %6
  %13 = load i64, ptr %3, align 8, !tbaa !10
  %14 = trunc i64 %13 to i32
  call void @llvm.lifetime.end.p0(i64 8, ptr %3) #17
  ret i32 %14
}

; Function Attrs: inlinehint nounwind sspstrong memory(argmem: readwrite, inaccessiblemem: readwrite) uwtable
define internal i64 @rbimpl_intern_const(ptr noundef nonnull %0, ptr noundef nonnull %1) #4 {
  %3 = alloca ptr, align 8
  %4 = alloca ptr, align 8
  store ptr %0, ptr %3, align 8, !tbaa !16
  store ptr %1, ptr %4, align 8, !tbaa !19
  br label %5

5:                                                ; preds = %10, %2
  %6 = load ptr, ptr %3, align 8, !tbaa !16
  %7 = load i64, ptr %6, align 8, !tbaa !10
  %8 = icmp ne i64 %7, 0
  %9 = xor i1 %8, true
  br i1 %9, label %10, label %14

10:                                               ; preds = %5
  %11 = load ptr, ptr %4, align 8, !tbaa !19
  %12 = call i64 @rb_intern_const(ptr noundef %11) #20
  %13 = load ptr, ptr %3, align 8, !tbaa !16
  store i64 %12, ptr %13, align 8, !tbaa !10
  br label %5, !llvm.loop !21

14:                                               ; preds = %5
  %15 = load ptr, ptr %3, align 8, !tbaa !16
  %16 = load i64, ptr %15, align 8, !tbaa !10
  ret i64 %16
}

; Function Attrs: inlinehint nounwind sspstrong uwtable
define internal i64 @rb_int2num_inline(i32 noundef %0) #3 {
  %2 = alloca i64, align 8
  %3 = alloca i32, align 4
  store i32 %0, ptr %3, align 4, !tbaa !6
  %4 = load i32, ptr %3, align 4, !tbaa !6
  %5 = sext i32 %4 to i64
  %6 = icmp slt i64 %5, 4611686018427387904
  br i1 %6, label %7, label %15

7:                                                ; preds = %1
  %8 = load i32, ptr %3, align 4, !tbaa !6
  %9 = sext i32 %8 to i64
  %10 = icmp sge i64 %9, -4611686018427387904
  br i1 %10, label %11, label %15

11:                                               ; preds = %7
  %12 = load i32, ptr %3, align 4, !tbaa !6
  %13 = sext i32 %12 to i64
  %14 = call i64 @RB_INT2FIX(i64 noundef %13) #19
  store i64 %14, ptr %2, align 8
  br label %19

15:                                               ; preds = %7, %1
  %16 = load i32, ptr %3, align 4, !tbaa !6
  %17 = sext i32 %16 to i64
  %18 = call i64 @rb_int2big(i64 noundef %17)
  store i64 %18, ptr %2, align 8
  br label %19

19:                                               ; preds = %15, %11
  %20 = load i64, ptr %2, align 8
  ret i64 %20
}

; Function Attrs: inlinehint nounwind sspstrong memory(argmem: readwrite, inaccessiblemem: readwrite) uwtable
define internal nonnull ptr @ruby_nonempty_memcpy(ptr noundef nonnull %0, ptr noundef %1, i64 noundef %2) #4 {
  %4 = alloca ptr, align 8
  %5 = alloca ptr, align 8
  %6 = alloca ptr, align 8
  %7 = alloca i64, align 8
  store ptr %0, ptr %5, align 8, !tbaa !64
  store ptr %1, ptr %6, align 8, !tbaa !64
  store i64 %2, ptr %7, align 8, !tbaa !10
  %8 = load i64, ptr %7, align 8, !tbaa !10
  %9 = icmp ne i64 %8, 0
  br i1 %9, label %10, label %15

10:                                               ; preds = %3
  %11 = load ptr, ptr %5, align 8, !tbaa !64
  %12 = load ptr, ptr %6, align 8, !tbaa !64
  %13 = load i64, ptr %7, align 8, !tbaa !10
  %14 = call ptr @memcpy.inline(ptr noundef %11, ptr noundef %12, i64 noundef %13) #17
  store ptr %14, ptr %4, align 8
  br label %17

15:                                               ; preds = %3
  %16 = load ptr, ptr %5, align 8, !tbaa !64
  store ptr %16, ptr %4, align 8
  br label %17

17:                                               ; preds = %15, %10
  %18 = load ptr, ptr %4, align 8
  ret ptr %18
}

; Function Attrs: inlinehint nounwind sspstrong uwtable
define internal ptr @RSTRING_PTR(i64 noundef %0) #3 {
  %2 = alloca i64, align 8
  %3 = alloca ptr, align 8
  %4 = alloca %struct.RString, align 8
  store i64 %0, ptr %2, align 8, !tbaa !10
  call void @llvm.lifetime.start.p0(i64 8, ptr %3) #17
  %5 = load i64, ptr %2, align 8, !tbaa !10
  call void @rbimpl_rstring_getmem(ptr dead_on_unwind writable sret(%struct.RString) align 8 %4, i64 noundef %5) #22
  %6 = getelementptr inbounds nuw %struct.RString, ptr %4, i32 0, i32 2
  %7 = getelementptr inbounds nuw %struct.anon.13, ptr %6, i32 0, i32 0
  %8 = load ptr, ptr %7, align 8, !tbaa !12
  store ptr %8, ptr %3, align 8, !tbaa !19
  %9 = load ptr, ptr %3, align 8, !tbaa !19
  call void @llvm.lifetime.end.p0(i64 8, ptr %3) #17
  ret ptr %9
}

; Function Attrs: inlinehint nounwind sspstrong willreturn memory(read) uwtable
define internal i64 @RSTRING_LEN(i64 noundef %0) #5 {
  %2 = alloca i64, align 8
  store i64 %0, ptr %2, align 8, !tbaa !10
  %3 = load i64, ptr %2, align 8, !tbaa !10
  %4 = inttoptr i64 %3 to ptr
  %5 = getelementptr inbounds nuw %struct.RString, ptr %4, i32 0, i32 1
  %6 = load i64, ptr %5, align 8, !tbaa !67
  ret i64 %6
}

; Function Attrs: nounwind sspstrong uwtable
define internal i64 @sockopt_data(i64 noundef %0) #0 {
  %2 = alloca i64, align 8
  %3 = alloca i64, align 8
  %4 = alloca i64, align 8
  store i64 %0, ptr %2, align 8, !tbaa !10
  call void @llvm.lifetime.start.p0(i64 8, ptr %3) #17
  %5 = load i64, ptr %2, align 8, !tbaa !10
  %6 = call i64 @rbimpl_intern_const(ptr noundef @sockopt_data.rbimpl_id, ptr noundef @.str.5) #18
  store i64 %6, ptr %4, align 8, !tbaa !10
  %7 = load i64, ptr %4, align 8, !tbaa !10
  %8 = call i64 @rb_attr_get(i64 noundef %5, i64 noundef %7)
  store i64 %8, ptr %3, align 8, !tbaa !10
  %9 = call i64 @rb_string_value(ptr noundef %3)
  %10 = load i64, ptr %3, align 8, !tbaa !10
  call void @llvm.lifetime.end.p0(i64 8, ptr %3) #17
  ret i64 %10
}

; Function Attrs: nounwind sspstrong uwtable
define internal i32 @sockopt_optname(i64 noundef %0) #0 {
  %2 = alloca i64, align 8
  %3 = alloca i64, align 8
  store i64 %0, ptr %2, align 8, !tbaa !10
  %4 = load i64, ptr %2, align 8, !tbaa !10
  %5 = call i64 @rbimpl_intern_const(ptr noundef @sockopt_optname.rbimpl_id, ptr noundef @.str.4) #18
  store i64 %5, ptr %3, align 8, !tbaa !10
  %6 = load i64, ptr %3, align 8, !tbaa !10
  %7 = call i64 @rb_attr_get(i64 noundef %4, i64 noundef %6)
  %8 = call i32 @rb_num2int_inline(i64 noundef %7)
  ret i32 %8
}

; Function Attrs: nounwind sspstrong uwtable
define internal i32 @sockopt_level(i64 noundef %0) #0 {
  %2 = alloca i64, align 8
  %3 = alloca i64, align 8
  store i64 %0, ptr %2, align 8, !tbaa !10
  %4 = load i64, ptr %2, align 8, !tbaa !10
  %5 = call i64 @rbimpl_intern_const(ptr noundef @sockopt_level.rbimpl_id, ptr noundef @.str.3) #18
  store i64 %5, ptr %3, align 8, !tbaa !10
  %6 = load i64, ptr %3, align 8, !tbaa !10
  %7 = call i64 @rb_attr_get(i64 noundef %4, i64 noundef %6)
  %8 = call i32 @rb_num2int_inline(i64 noundef %7)
  ret i32 %8
}

; Function Attrs: nounwind sspstrong uwtable
define internal i64 @sockopt_linger(i64 noundef %0) #0 {
  %2 = alloca i64, align 8
  %3 = alloca i32, align 4
  %4 = alloca i32, align 4
  %5 = alloca i64, align 8
  %6 = alloca %struct.linger, align 4
  %7 = alloca i64, align 8
  %8 = alloca i64, align 8
  store i64 %0, ptr %2, align 8, !tbaa !10
  call void @llvm.lifetime.start.p0(i64 4, ptr %3) #17
  %9 = load i64, ptr %2, align 8, !tbaa !10
  %10 = call i32 @sockopt_level(i64 noundef %9)
  store i32 %10, ptr %3, align 4, !tbaa !6
  call void @llvm.lifetime.start.p0(i64 4, ptr %4) #17
  %11 = load i64, ptr %2, align 8, !tbaa !10
  %12 = call i32 @sockopt_optname(i64 noundef %11)
  store i32 %12, ptr %4, align 4, !tbaa !6
  call void @llvm.lifetime.start.p0(i64 8, ptr %5) #17
  %13 = load i64, ptr %2, align 8, !tbaa !10
  %14 = call i64 @sockopt_data(i64 noundef %13)
  store i64 %14, ptr %5, align 8, !tbaa !10
  call void @llvm.lifetime.start.p0(i64 8, ptr %6) #17
  call void @llvm.lifetime.start.p0(i64 8, ptr %7) #17
  call void @llvm.lifetime.start.p0(i64 8, ptr %8) #17
  %15 = load i32, ptr %3, align 4, !tbaa !6
  %16 = icmp ne i32 %15, 1
  br i1 %16, label %20, label %17

17:                                               ; preds = %1
  %18 = load i32, ptr %4, align 4, !tbaa !6
  %19 = icmp ne i32 %18, 13
  br i1 %19, label %20, label %22

20:                                               ; preds = %17, %1
  %21 = load i64, ptr @rb_eTypeError, align 8, !tbaa !10
  call void (i64, ptr, ...) @rb_raise(i64 noundef %21, ptr noundef @.str.102) #21
  unreachable

22:                                               ; preds = %17
  %23 = load i64, ptr %5, align 8, !tbaa !10
  %24 = call i64 @RSTRING_LEN(i64 noundef %23) #20
  %25 = icmp eq i64 %24, 8
  br i1 %25, label %26, label %27

26:                                               ; preds = %22
  br label %32

27:                                               ; preds = %22
  %28 = load i64, ptr @rb_eTypeError, align 8, !tbaa !10
  %29 = load i64, ptr %5, align 8, !tbaa !10
  %30 = call i64 @RSTRING_LEN(i64 noundef %29) #20
  call void (i64, ptr, ...) @rb_raise(i64 noundef %28, ptr noundef @.str.103, i32 noundef 8, i64 noundef %30) #21
  unreachable

31:                                               ; No predecessors!
  br label %32

32:                                               ; preds = %31, %26
  %33 = load i64, ptr %5, align 8, !tbaa !10
  %34 = call ptr @RSTRING_PTR(i64 noundef %33)
  %35 = call nonnull ptr @ruby_nonempty_memcpy(ptr noundef %6, ptr noundef %34, i64 noundef 8) #18
  %36 = getelementptr inbounds nuw %struct.linger, ptr %6, i32 0, i32 0
  %37 = load i32, ptr %36, align 4, !tbaa !13
  switch i32 %37, label %40 [
    i32 0, label %38
    i32 1, label %39
  ]

38:                                               ; preds = %32
  store i64 0, ptr %7, align 8, !tbaa !10
  br label %44

39:                                               ; preds = %32
  store i64 20, ptr %7, align 8, !tbaa !10
  br label %44

40:                                               ; preds = %32
  %41 = getelementptr inbounds nuw %struct.linger, ptr %6, i32 0, i32 0
  %42 = load i32, ptr %41, align 4, !tbaa !13
  %43 = call i64 @rb_int2num_inline(i32 noundef %42)
  store i64 %43, ptr %7, align 8, !tbaa !10
  br label %44

44:                                               ; preds = %40, %39, %38
  %45 = getelementptr inbounds nuw %struct.linger, ptr %6, i32 0, i32 1
  %46 = load i32, ptr %45, align 4, !tbaa !15
  %47 = call i64 @rb_int2num_inline(i32 noundef %46)
  store i64 %47, ptr %8, align 8, !tbaa !10
  %48 = load i64, ptr %7, align 8, !tbaa !10
  %49 = load i64, ptr %8, align 8, !tbaa !10
  %50 = call i64 @rb_assoc_new(i64 noundef %48, i64 noundef %49)
  call void @llvm.lifetime.end.p0(i64 8, ptr %8) #17
  call void @llvm.lifetime.end.p0(i64 8, ptr %7) #17
  call void @llvm.lifetime.end.p0(i64 8, ptr %6) #17
  call void @llvm.lifetime.end.p0(i64 8, ptr %5) #17
  call void @llvm.lifetime.end.p0(i64 4, ptr %4) #17
  call void @llvm.lifetime.end.p0(i64 4, ptr %3) #17
  ret i64 %50
}