; Function Attrs: nounwind sspstrong uwtable
define internal i64 @sockopt_linger(i64 noundef %0) #0 {
  %2 = alloca i64, align 8
  %.pr.i.i = load i64, ptr @sockopt_level.rbimpl_id, align 8, !tbaa !6
  %.not4.i.i = icmp eq i64 %.pr.i.i, 0
  br i1 %.not4.i.i, label %.lr.ph.i.i, label %rbimpl_intern_const.exit.i

.lr.ph.i.i:                                       ; preds = %1, %.lr.ph.i.i
  %3 = tail call i64 @rb_intern2(ptr noundef nonnull @.str.3, i64 noundef 5) #6
  store i64 %3, ptr @sockopt_level.rbimpl_id, align 8, !tbaa !6
  %.not.i.i = icmp eq i64 %3, 0
  br i1 %.not.i.i, label %.lr.ph.i.i, label %rbimpl_intern_const.exit.i, !llvm.loop !10

rbimpl_intern_const.exit.i:                       ; preds = %.lr.ph.i.i, %1
  %.lcssa.i.i = phi i64 [ %.pr.i.i, %1 ], [ %3, %.lr.ph.i.i ]
  %4 = tail call i64 @rb_attr_get(i64 noundef %0, i64 noundef %.lcssa.i.i) #6
  %5 = and i64 %4, 1
  %.not.i2.i = icmp eq i64 %5, 0
  br i1 %.not.i2.i, label %8, label %6

6:                                                ; preds = %rbimpl_intern_const.exit.i
  %7 = tail call i64 @rb_fix2int(i64 noundef %4) #6
  br label %sockopt_level.exit

8:                                                ; preds = %rbimpl_intern_const.exit.i
  %9 = tail call i64 @rb_num2int(i64 noundef %4) #6
  br label %sockopt_level.exit

sockopt_level.exit:                               ; preds = %6, %8
  %.0.i.i = phi i64 [ %7, %6 ], [ %9, %8 ]
  %.pr.i.i12 = load i64, ptr @sockopt_optname.rbimpl_id, align 8, !tbaa !6
  %.not4.i.i13 = icmp eq i64 %.pr.i.i12, 0
  br i1 %.not4.i.i13, label %.lr.ph.i.i18, label %rbimpl_intern_const.exit.i14

.lr.ph.i.i18:                                     ; preds = %sockopt_level.exit, %.lr.ph.i.i18
  %10 = tail call i64 @rb_intern2(ptr noundef nonnull @.str.4, i64 noundef 7) #6
  store i64 %10, ptr @sockopt_optname.rbimpl_id, align 8, !tbaa !6
  %.not.i.i19 = icmp eq i64 %10, 0
  br i1 %.not.i.i19, label %.lr.ph.i.i18, label %rbimpl_intern_const.exit.i14, !llvm.loop !10

rbimpl_intern_const.exit.i14:                     ; preds = %.lr.ph.i.i18, %sockopt_level.exit
  %.lcssa.i.i15 = phi i64 [ %.pr.i.i12, %sockopt_level.exit ], [ %10, %.lr.ph.i.i18 ]
  %11 = tail call i64 @rb_attr_get(i64 noundef %0, i64 noundef %.lcssa.i.i15) #6
  %12 = and i64 %11, 1
  %.not.i2.i16 = icmp eq i64 %12, 0
  br i1 %.not.i2.i16, label %15, label %13

13:                                               ; preds = %rbimpl_intern_const.exit.i14
  %14 = tail call i64 @rb_fix2int(i64 noundef %11) #6
  br label %sockopt_optname.exit

15:                                               ; preds = %rbimpl_intern_const.exit.i14
  %16 = tail call i64 @rb_num2int(i64 noundef %11) #6
  br label %sockopt_optname.exit

sockopt_optname.exit:                             ; preds = %13, %15
  %.0.i.i17 = phi i64 [ %14, %13 ], [ %16, %15 ]
  call void @llvm.lifetime.start.p0(i64 8, ptr nonnull %2) #6
  %.pr.i.i20 = load i64, ptr @sockopt_data.rbimpl_id, align 8, !tbaa !6
  %.not4.i.i21 = icmp eq i64 %.pr.i.i20, 0
  br i1 %.not4.i.i21, label %.lr.ph.i.i24, label %sockopt_data.exit

.lr.ph.i.i24:                                     ; preds = %sockopt_optname.exit, %.lr.ph.i.i24
  %17 = tail call i64 @rb_intern2(ptr noundef nonnull @.str.5, i64 noundef 4) #6
  store i64 %17, ptr @sockopt_data.rbimpl_id, align 8, !tbaa !6
  %.not.i.i25 = icmp eq i64 %17, 0
  br i1 %.not.i.i25, label %.lr.ph.i.i24, label %sockopt_data.exit, !llvm.loop !10

sockopt_data.exit:                                ; preds = %.lr.ph.i.i24, %sockopt_optname.exit
  %.lcssa.i.i23 = phi i64 [ %.pr.i.i20, %sockopt_optname.exit ], [ %17, %.lr.ph.i.i24 ]
  %18 = tail call i64 @rb_attr_get(i64 noundef %0, i64 noundef %.lcssa.i.i23) #6
  store i64 %18, ptr %2, align 8, !tbaa !6
  %19 = call i64 @rb_string_value(ptr noundef nonnull %2) #6
  %20 = load i64, ptr %2, align 8, !tbaa !6
  call void @llvm.lifetime.end.p0(i64 8, ptr nonnull %2) #6
  %21 = and i64 %.0.i.i, 4294967295
  %22 = icmp ne i64 %21, 1
  %23 = and i64 %.0.i.i17, 4294967295
  %24 = icmp ne i64 %23, 13
  %or.cond = select i1 %22, i1 true, i1 %24
  br i1 %or.cond, label %25, label %27

25:                                               ; preds = %sockopt_data.exit
  %26 = load i64, ptr @rb_eTypeError, align 8, !tbaa !6
  call void (i64, ptr, ...) @rb_raise(i64 noundef %26, ptr noundef nonnull @.str.102) #7
  unreachable

27:                                               ; preds = %sockopt_data.exit
  %28 = inttoptr i64 %20 to ptr
  %29 = getelementptr inbounds nuw i8, ptr %28, i64 16
  %30 = load i64, ptr %29, align 8, !tbaa !15
  %31 = icmp eq i64 %30, 8
  br i1 %31, label %34, label %32

32:                                               ; preds = %27
  %33 = load i64, ptr @rb_eTypeError, align 8, !tbaa !6
  call void (i64, ptr, ...) @rb_raise(i64 noundef %33, ptr noundef nonnull @.str.103, i32 noundef 8, i64 noundef %30) #7
  unreachable

34:                                               ; preds = %27
  %35 = load i64, ptr %28, align 8, !tbaa !13, !noalias !95
  %36 = and i64 %35, 8192
  %.not.i.i26 = icmp eq i64 %36, 0
  %37 = getelementptr inbounds nuw i8, ptr %28, i64 24
  br i1 %.not.i.i26, label %RSTRING_PTR.exit, label %38

38:                                               ; preds = %34
  %.sroa.2.0.copyload.i = load ptr, ptr %37, align 8
  br label %RSTRING_PTR.exit

RSTRING_PTR.exit:                                 ; preds = %34, %38
  %.sroa.2.0.i = phi ptr [ %.sroa.2.0.copyload.i, %38 ], [ %37, %34 ]
  %39 = load i64, ptr %.sroa.2.0.i, align 1
  %.sroa.0.0.extract.trunc = trunc i64 %39 to i32
  switch i32 %.sroa.0.0.extract.trunc, label %41 [
    i32 0, label %44
    i32 1, label %40
  ]

40:                                               ; preds = %RSTRING_PTR.exit
  br label %44

41:                                               ; preds = %RSTRING_PTR.exit
  %sext = shl i64 %39, 32
  %42 = ashr exact i64 %sext, 31
  %43 = or disjoint i64 %42, 1
  br label %44

44:                                               ; preds = %RSTRING_PTR.exit, %41, %40
  %.0 = phi i64 [ %43, %41 ], [ 20, %40 ], [ 0, %RSTRING_PTR.exit ]
  %45 = ashr i64 %39, 31
  %46 = or i64 %45, 1
  %47 = call i64 @rb_assoc_new(i64 noundef %.0, i64 noundef %46) #6
  ret i64 %47
}